; Function Attrs: nounwind uwtable
define ptr @l_Array_forIn_x27Unsafe_loop___at_Lean_Meta_Try_Collector_main_go___spec__3___boxed(ptr noundef %0, ptr noundef %1, ptr noundef %2, ptr noundef %3, ptr noundef %4, ptr noundef %5, ptr noundef %6, ptr noundef %7, ptr noundef %8, ptr noundef %9, ptr noundef %10, ptr noundef %11, ptr noundef %12, ptr noundef %13, ptr noundef %14, ptr noundef %15) local_unnamed_addr #0 {
  %17 = getelementptr i8, ptr %5, i64 8
  %.val43 = load i64, ptr %17, align 8, !tbaa !14
  %18 = ptrtoint ptr %5 to i64
  %19 = and i64 %18, 1
  %.not = icmp eq i64 %19, 0
  br i1 %.not, label %20, label %lean_dec.exit30

20:                                               ; preds = %16
  %21 = load i32, ptr %5, align 4, !tbaa !8
  %22 = icmp sgt i32 %21, 1
  br i1 %22, label %23, label %25, !prof !13

23:                                               ; preds = %20
  %24 = add nsw i32 %21, -1
  store i32 %24, ptr %5, align 4, !tbaa !8
  br label %lean_dec.exit30

25:                                               ; preds = %20
  %.not.i = icmp eq i32 %21, 0
  br i1 %.not.i, label %lean_dec.exit30, label %26

26:                                               ; preds = %25
  tail call void @lean_dec_ref_cold(ptr noundef nonnull %5) #5
  br label %lean_dec.exit30

lean_dec.exit30:                                  ; preds = %26, %25, %23, %16
  %27 = getelementptr i8, ptr %6, i64 8
  %.val = load i64, ptr %27, align 8, !tbaa !14
  %28 = ptrtoint ptr %6 to i64
  %29 = and i64 %28, 1
  %.not44 = icmp eq i64 %29, 0
  br i1 %.not44, label %30, label %lean_dec.exit29

30:                                               ; preds = %lean_dec.exit30
  %31 = load i32, ptr %6, align 4, !tbaa !8
  %32 = icmp sgt i32 %31, 1
  br i1 %32, label %33, label %35, !prof !13

33:                                               ; preds = %30
  %34 = add nsw i32 %31, -1
  store i32 %34, ptr %6, align 4, !tbaa !8
  br label %lean_dec.exit29

35:                                               ; preds = %30
  %.not.i31 = icmp eq i32 %31, 0
  br i1 %.not.i31, label %lean_dec.exit29, label %36

36:                                               ; preds = %35
  tail call void @lean_dec_ref_cold(ptr noundef nonnull %6) #5
  br label %lean_dec.exit29

lean_dec.exit29:                                  ; preds = %36, %35, %33, %lean_dec.exit30
  %37 = tail call ptr @l_Array_forIn_x27Unsafe_loop___at_Lean_Meta_Try_Collector_main_go___spec__3(ptr noundef %0, ptr poison, ptr poison, ptr noundef %3, ptr noundef %4, i64 noundef %.val43, i64 noundef %.val, ptr noundef %7, ptr noundef %8, ptr noundef %9, ptr noundef %10, ptr noundef %11, ptr noundef %12, ptr noundef %13, ptr noundef %14, ptr noundef %15)
  %38 = ptrtoint ptr %8 to i64
  %39 = and i64 %38, 1
  %.not45 = icmp eq i64 %39, 0
  br i1 %.not45, label %40, label %lean_dec.exit28

40:                                               ; preds = %lean_dec.exit29
  %41 = load i32, ptr %8, align 4, !tbaa !8
  %42 = icmp sgt i32 %41, 1
  br i1 %42, label %43, label %45, !prof !13

43:                                               ; preds = %40
  %44 = add nsw i32 %41, -1
  store i32 %44, ptr %8, align 4, !tbaa !8
  br label %lean_dec.exit28

45:                                               ; preds = %40
  %.not.i33 = icmp eq i32 %41, 0
  br i1 %.not.i33, label %lean_dec.exit28, label %46

46:                                               ; preds = %45
  tail call void @lean_dec_ref_cold(ptr noundef nonnull %8) #5
  br label %lean_dec.exit28

lean_dec.exit28:                                  ; preds = %46, %45, %43, %lean_dec.exit29
  %47 = ptrtoint ptr %4 to i64
  %48 = and i64 %47, 1
  %.not46 = icmp eq i64 %48, 0
  br i1 %.not46, label %49, label %lean_dec.exit27

49:                                               ; preds = %lean_dec.exit28
  %50 = load i32, ptr %4, align 4, !tbaa !8
  %51 = icmp sgt i32 %50, 1
  br i1 %51, label %52, label %54, !prof !13

52:                                               ; preds = %49
  %53 = add nsw i32 %50, -1
  store i32 %53, ptr %4, align 4, !tbaa !8
  br label %lean_dec.exit27

54:                                               ; preds = %49
  %.not.i35 = icmp eq i32 %50, 0
  br i1 %.not.i35, label %lean_dec.exit27, label %55

55:                                               ; preds = %54
  tail call void @lean_dec_ref_cold(ptr noundef nonnull %4) #5
  br label %lean_dec.exit27

lean_dec.exit27:                                  ; preds = %55, %54, %52, %lean_dec.exit28
  %56 = ptrtoint ptr %2 to i64
  %57 = and i64 %56, 1
  %.not47 = icmp eq i64 %57, 0
  br i1 %.not47, label %58, label %lean_dec.exit26

58:                                               ; preds = %lean_dec.exit27
  %59 = load i32, ptr %2, align 4, !tbaa !8
  %60 = icmp sgt i32 %59, 1
  br i1 %60, label %61, label %63, !prof !13

61:                                               ; preds = %58
  %62 = add nsw i32 %59, -1
  store i32 %62, ptr %2, align 4, !tbaa !8
  br label %lean_dec.exit26

63:                                               ; preds = %58
  %.not.i37 = icmp eq i32 %59, 0
  br i1 %.not.i37, label %lean_dec.exit26, label %64

64:                                               ; preds = %63
  tail call void @lean_dec_ref_cold(ptr noundef nonnull %2) #5
  br label %lean_dec.exit26

lean_dec.exit26:                                  ; preds = %64, %63, %61, %lean_dec.exit27
  %65 = ptrtoint ptr %1 to i64
  %66 = and i64 %65, 1
  %.not48 = icmp eq i64 %66, 0
  br i1 %.not48, label %67, label %lean_dec.exit25

67:                                               ; preds = %lean_dec.exit26
  %68 = load i32, ptr %1, align 4, !tbaa !8
  %69 = icmp sgt i32 %68, 1
  br i1 %69, label %70, label %72, !prof !13

70:                                               ; preds = %67
  %71 = add nsw i32 %68, -1
  store i32 %71, ptr %1, align 4, !tbaa !8
  br label %lean_dec.exit25

72:                                               ; preds = %67
  %.not.i39 = icmp eq i32 %68, 0
  br i1 %.not.i39, label %lean_dec.exit25, label %73

73:                                               ; preds = %72
  tail call void @lean_dec_ref_cold(ptr noundef nonnull %1) #5
  br label %lean_dec.exit25

lean_dec.exit25:                                  ; preds = %73, %72, %70, %lean_dec.exit26
  %74 = ptrtoint ptr %0 to i64
  %75 = and i64 %74, 1
  %.not49 = icmp eq i64 %75, 0
  br i1 %.not49, label %76, label %lean_dec.exit

76:                                               ; preds = %lean_dec.exit25
  %77 = load i32, ptr %0, align 4, !tbaa !8
  %78 = icmp sgt i32 %77, 1
  br i1 %78, label %79, label %81, !prof !13

79:                                               ; preds = %76
  %80 = add nsw i32 %77, -1
  store i32 %80, ptr %0, align 4, !tbaa !8
  br label %lean_dec.exit

81:                                               ; preds = %76
  %.not.i41 = icmp eq i32 %77, 0
  br i1 %.not.i41, label %lean_dec.exit, label %82

82:                                               ; preds = %81
  tail call void @lean_dec_ref_cold(ptr noundef nonnull %0) #5
  br label %lean_dec.exit

lean_dec.exit:                                    ; preds = %82, %81, %79, %lean_dec.exit25
  ret ptr %37
}